target datalayout = "e-m:e-p270:32:32-p271:32:32-p272:64:64-i64:64-i128:128-f80:128-n8:16:32:64-S128"
target triple = "x86_64-pc-linux-gnu"

%struct.FT_Vector_ = type { i64, i64 }
%struct.FT_RendererRec_ = type { %struct.FT_ModuleRec_, ptr, i32, %struct.FT_Glyph_Class_, ptr, ptr, ptr }
%struct.FT_ModuleRec_ = type { ptr, ptr, ptr }
%struct.FT_Glyph_Class_ = type { i64, i32, ptr, ptr, ptr, ptr, ptr, ptr }
%struct.FT_GlyphSlotRec_ = type { ptr, ptr, ptr, i32, %struct.FT_Generic_, %struct.FT_Glyph_Metrics_, i64, i64, %struct.FT_Vector_, i32, %struct.FT_Bitmap_, i32, i32, %struct.FT_Outline_, i32, ptr, ptr, i64, i64, i64, ptr, ptr }
%struct.FT_Generic_ = type { ptr, ptr }
%struct.FT_Glyph_Metrics_ = type { i64, i64, i64, i64, i64, i64, i64, i64 }
%struct.FT_Bitmap_ = type { i32, i32, i32, ptr, i16, i8, i8, ptr }
%struct.FT_Outline_ = type { i16, i16, ptr, ptr, ptr, i32 }

; Function Attrs: nounwind uwtable
define internal i32 @ft_sdf_transform(ptr noundef %0, ptr noundef %1, ptr noundef %2, ptr noundef %3) #0 {
  %5 = alloca ptr, align 8
  %6 = alloca ptr, align 8
  %7 = alloca ptr, align 8
  %8 = alloca ptr, align 8
  %9 = alloca i32, align 4
  store ptr %0, ptr %5, align 8, !tbaa !27
  store ptr %1, ptr %6, align 8, !tbaa !29
  store ptr %2, ptr %7, align 8, !tbaa !81
  store ptr %3, ptr %8, align 8, !tbaa !32
  call void @llvm.lifetime.start.p0(i64 4, ptr %9) #7
  store i32 0, ptr %9, align 4, !tbaa !31
  %10 = load ptr, ptr %6, align 8, !tbaa !29
  %11 = getelementptr inbounds nuw %struct.FT_GlyphSlotRec_, ptr %10, i32 0, i32 9
  %12 = load i32, ptr %11, align 8, !tbaa !41
  %13 = load ptr, ptr %5, align 8, !tbaa !27
  %14 = getelementptr inbounds nuw %struct.FT_RendererRec_, ptr %13, i32 0, i32 2
  %15 = load i32, ptr %14, align 8, !tbaa !53
  %16 = icmp ne i32 %12, %15
  br i1 %16, label %17, label %18

17:                                               ; preds = %4
  store i32 6, ptr %9, align 4, !tbaa !31
  br label %38

18:                                               ; preds = %4
  %19 = load ptr, ptr %7, align 8, !tbaa !81
  %20 = icmp ne ptr %19, null
  br i1 %20, label %21, label %25

21:                                               ; preds = %18
  %22 = load ptr, ptr %6, align 8, !tbaa !29
  %23 = getelementptr inbounds nuw %struct.FT_GlyphSlotRec_, ptr %22, i32 0, i32 13
  %24 = load ptr, ptr %7, align 8, !tbaa !81
  call void @FT_Outline_Transform(ptr noundef %23, ptr noundef %24)
  br label %25

25:                                               ; preds = %21, %18
  %26 = load ptr, ptr %8, align 8, !tbaa !32
  %27 = icmp ne ptr %26, null
  br i1 %27, label %28, label %37

28:                                               ; preds = %25
  %29 = load ptr, ptr %6, align 8, !tbaa !29
  %30 = getelementptr inbounds nuw %struct.FT_GlyphSlotRec_, ptr %29, i32 0, i32 13
  %31 = load ptr, ptr %8, align 8, !tbaa !32
  %32 = getelementptr inbounds nuw %struct.FT_Vector_, ptr %31, i32 0, i32 0
  %33 = load i64, ptr %32, align 8, !tbaa !67
  %34 = load ptr, ptr %8, align 8, !tbaa !32
  %35 = getelementptr inbounds nuw %struct.FT_Vector_, ptr %34, i32 0, i32 1
  %36 = load i64, ptr %35, align 8, !tbaa !68
  call void @FT_Outline_Translate(ptr noundef %30, i64 noundef %33, i64 noundef %36)
  br label %37

37:                                               ; preds = %28, %25
  br label %38

38:                                               ; preds = %37, %17
  %39 = load i32, ptr %9, align 4, !tbaa !31
  call void @llvm.lifetime.end.p0(i64 4, ptr %9) #7
  ret i32 %39
}